; Function Attrs: nounwind uwtable
define range(i32 -1, 1) i32 @H5C__get_cache_image_config(ptr noundef readonly captures(address_is_null) %0, ptr noundef writeonly captures(address_is_null) %1) local_unnamed_addr #3 {
  %3 = load i8, ptr @H5C_init_g, align 1, !tbaa !3, !range !7, !noundef !8
  %4 = trunc nuw i8 %3 to i1
  %5 = load i8, ptr @H5_libterm_g, align 1, !range !7
  %6 = trunc nuw i8 %5 to i1
  %7 = xor i1 %6, true
  %8 = select i1 %4, i1 true, i1 %7
  br i1 %8, label %9, label %23, !prof !9

9:                                                ; preds = %2
  %10 = icmp eq ptr %0, null
  br i1 %10, label %11, label %15

11:                                               ; preds = %9
  %12 = load i64, ptr @H5E_CACHE_g, align 8, !tbaa !53
  %13 = load i64, ptr @H5E_BADVALUE_g, align 8, !tbaa !53
  %14 = tail call i32 (ptr, ptr, i32, i64, i64, ptr, ...) @H5E_printf_stack(ptr noundef nonnull @.str.1, ptr noundef nonnull @__func__.H5C__get_cache_image_config, i32 noundef 504, i64 noundef %12, i64 noundef %13, ptr noundef nonnull @.str.5) #15
  br label %23

15:                                               ; preds = %9
  %16 = icmp eq ptr %1, null
  br i1 %16, label %17, label %21

17:                                               ; preds = %15
  %18 = load i64, ptr @H5E_CACHE_g, align 8, !tbaa !53
  %19 = load i64, ptr @H5E_BADVALUE_g, align 8, !tbaa !53
  %20 = tail call i32 (ptr, ptr, i32, i64, i64, ptr, ...) @H5E_printf_stack(ptr noundef nonnull @.str.1, ptr noundef nonnull @__func__.H5C__get_cache_image_config, i32 noundef 506, i64 noundef %18, i64 noundef %19, ptr noundef nonnull @.str.6) #15
  br label %23

21:                                               ; preds = %15
  %22 = getelementptr inbounds nuw i8, ptr %0, i64 527616
  tail call void @llvm.memcpy.p0.p0.i64(ptr noundef nonnull align 4 dereferenceable(16) %1, ptr noundef nonnull align 8 dereferenceable(16) %22, i64 16, i1 false), !tbaa.struct !82
  br label %23

23:                                               ; preds = %11, %17, %21, %2
  %.0 = phi i32 [ -1, %11 ], [ -1, %17 ], [ 0, %21 ], [ 0, %2 ]
  ret i32 %.0
}